target datalayout = "e-m:e-p270:32:32-p271:32:32-p272:64:64-i64:64-i128:128-f80:128-n8:16:32:64-S128"
target triple = "x86_64-pc-linux-gnu"

; Function Attrs: mustprogress nounwind uwtable
define void @_ZN3MD56decodeEPjPKhj(ptr noundef %0, ptr noundef %1, i32 noundef %2) #5 align 2 {
  %4 = alloca ptr, align 8
  %5 = alloca ptr, align 8
  %6 = alloca i32, align 4
  %7 = alloca i32, align 4
  %8 = alloca i32, align 4
  store ptr %0, ptr %4, align 8, !tbaa !26
  store ptr %1, ptr %5, align 8, !tbaa !18
  store i32 %2, ptr %6, align 4, !tbaa !14
  call void @llvm.lifetime.start.p0(i64 4, ptr %7) #3
  store i32 0, ptr %7, align 4, !tbaa !14
  call void @llvm.lifetime.start.p0(i64 4, ptr %8) #3
  store i32 0, ptr %8, align 4, !tbaa !14
  br label %9

9:                                                ; preds = %52, %3
  %10 = load i32, ptr %8, align 4, !tbaa !14
  %11 = load i32, ptr %6, align 4, !tbaa !14
  %12 = icmp ult i32 %10, %11
  br i1 %12, label %14, label %13

13:                                               ; preds = %9
  call void @llvm.lifetime.end.p0(i64 4, ptr %8) #3
  call void @llvm.lifetime.end.p0(i64 4, ptr %7) #3
  br label %57

14:                                               ; preds = %9
  %15 = load ptr, ptr %5, align 8, !tbaa !18
  %16 = load i32, ptr %8, align 4, !tbaa !14
  %17 = zext i32 %16 to i64
  %18 = getelementptr inbounds nuw i8, ptr %15, i64 %17
  %19 = load i8, ptr %18, align 1, !tbaa !28
  %20 = zext i8 %19 to i32
  %21 = load ptr, ptr %5, align 8, !tbaa !18
  %22 = load i32, ptr %8, align 4, !tbaa !14
  %23 = add i32 %22, 1
  %24 = zext i32 %23 to i64
  %25 = getelementptr inbounds nuw i8, ptr %21, i64 %24
  %26 = load i8, ptr %25, align 1, !tbaa !28
  %27 = zext i8 %26 to i32
  %28 = shl i32 %27, 8
  %29 = or i32 %20, %28
  %30 = load ptr, ptr %5, align 8, !tbaa !18
  %31 = load i32, ptr %8, align 4, !tbaa !14
  %32 = add i32 %31, 2
  %33 = zext i32 %32 to i64
  %34 = getelementptr inbounds nuw i8, ptr %30, i64 %33
  %35 = load i8, ptr %34, align 1, !tbaa !28
  %36 = zext i8 %35 to i32
  %37 = shl i32 %36, 16
  %38 = or i32 %29, %37
  %39 = load ptr, ptr %5, align 8, !tbaa !18
  %40 = load i32, ptr %8, align 4, !tbaa !14
  %41 = add i32 %40, 3
  %42 = zext i32 %41 to i64
  %43 = getelementptr inbounds nuw i8, ptr %39, i64 %42
  %44 = load i8, ptr %43, align 1, !tbaa !28
  %45 = zext i8 %44 to i32
  %46 = shl i32 %45, 24
  %47 = or i32 %38, %46
  %48 = load ptr, ptr %4, align 8, !tbaa !26
  %49 = load i32, ptr %7, align 4, !tbaa !14
  %50 = zext i32 %49 to i64
  %51 = getelementptr inbounds nuw i32, ptr %48, i64 %50
  store i32 %47, ptr %51, align 4, !tbaa !14
  br label %52

52:                                               ; preds = %14
  %53 = load i32, ptr %7, align 4, !tbaa !14
  %54 = add i32 %53, 1
  store i32 %54, ptr %7, align 4, !tbaa !14
  %55 = load i32, ptr %8, align 4, !tbaa !14
  %56 = add i32 %55, 4
  store i32 %56, ptr %8, align 4, !tbaa !14
  br label %9, !llvm.loop !29

57:                                               ; preds = %13
  ret void
}