; Function Attrs: mustprogress nofree norecurse nosync nounwind memory(argmem: readwrite) uwtable
define void @_ZN3MD56decodeEPjPKhj(ptr noundef writeonly captures(none) %0, ptr noundef readonly captures(none) %1, i32 noundef %2) local_unnamed_addr #5 align 2 {
  %.not = icmp eq i32 %2, 0
  br i1 %.not, label %._crit_edge, label %.lr.ph.preheader

.lr.ph.preheader:                                 ; preds = %3
  %4 = add i32 %2, -1
  %5 = lshr i32 %4, 2
  %6 = add nuw nsw i32 %5, 1
  %wide.trip.count = zext nneg i32 %6 to i64
  br label %.lr.ph

._crit_edge:                                      ; preds = %.lr.ph, %3
  ret void

.lr.ph:                                           ; preds = %.lr.ph.preheader, %.lr.ph
  %indvars.iv16 = phi i64 [ 0, %.lr.ph.preheader ], [ %indvars.iv.next17, %.lr.ph ]
  %indvars.iv = phi i64 [ 0, %.lr.ph.preheader ], [ %indvars.iv.next, %.lr.ph ]
  %7 = getelementptr inbounds nuw i8, ptr %1, i64 %indvars.iv
  %8 = load i8, ptr %7, align 1, !tbaa !24
  %9 = zext i8 %8 to i32
  %10 = or disjoint i64 %indvars.iv, 1
  %11 = getelementptr inbounds nuw i8, ptr %1, i64 %10
  %12 = load i8, ptr %11, align 1, !tbaa !24
  %13 = zext i8 %12 to i32
  %14 = shl nuw nsw i32 %13, 8
  %15 = or disjoint i32 %14, %9
  %16 = or disjoint i64 %indvars.iv, 2
  %17 = getelementptr inbounds nuw i8, ptr %1, i64 %16
  %18 = load i8, ptr %17, align 1, !tbaa !24
  %19 = zext i8 %18 to i32
  %20 = shl nuw nsw i32 %19, 16
  %21 = or disjoint i32 %15, %20
  %22 = or disjoint i64 %indvars.iv, 3
  %23 = getelementptr inbounds nuw i8, ptr %1, i64 %22
  %24 = load i8, ptr %23, align 1, !tbaa !24
  %25 = zext i8 %24 to i32
  %26 = shl nuw i32 %25, 24
  %27 = or disjoint i32 %21, %26
  %28 = getelementptr inbounds nuw i32, ptr %0, i64 %indvars.iv16
  store i32 %27, ptr %28, align 4, !tbaa !11
  %indvars.iv.next17 = add nuw nsw i64 %indvars.iv16, 1
  %indvars.iv.next = add nuw nsw i64 %indvars.iv, 4
  %exitcond.not = icmp eq i64 %indvars.iv.next17, %wide.trip.count
  br i1 %exitcond.not, label %._crit_edge, label %.lr.ph, !llvm.loop !26
}